target datalayout = "e-m:e-p270:32:32-p271:32:32-p272:64:64-i64:64-i128:128-f80:128-n8:16:32:64-S128"
target triple = "x86_64-pc-linux-gnu"

%struct.FLAC__OggEncoderAspect = type { i64, i32, %struct.ogg_stream_state, %struct.ogg_page, i32, i32, i64, i64 }
%struct.ogg_stream_state = type { ptr, i64, i64, i64, ptr, ptr, i64, i64, i64, i64, [282 x i8], i32, i32, i32, i64, i64, i64, i64 }
%struct.ogg_page = type { ptr, i64, ptr, i64 }

@FLAC__OGG_MAPPING_NUM_HEADERS_LEN = external constant i32, align 4

; Function Attrs: nounwind sspstrong uwtable
define hidden i32 @FLAC__ogg_encoder_aspect_set_num_metadata(ptr noundef %0, i32 noundef %1) #0 {
  %3 = alloca i32, align 4
  %4 = alloca ptr, align 8
  %5 = alloca i32, align 4
  store ptr %0, ptr %4, align 8, !tbaa !3
  store i32 %1, ptr %5, align 4, !tbaa !22
  %6 = load i32, ptr %5, align 4, !tbaa !22
  %7 = load i32, ptr @FLAC__OGG_MAPPING_NUM_HEADERS_LEN, align 4, !tbaa !22
  %8 = shl i32 1, %7
  %9 = icmp ult i32 %6, %8
  br i1 %9, label %10, label %14

10:                                               ; preds = %2
  %11 = load i32, ptr %5, align 4, !tbaa !22
  %12 = load ptr, ptr %4, align 8, !tbaa !3
  %13 = getelementptr inbounds nuw %struct.FLAC__OggEncoderAspect, ptr %12, i32 0, i32 1
  store i32 %11, ptr %13, align 8, !tbaa !23
  store i32 1, ptr %3, align 4
  br label %15

14:                                               ; preds = %2
  store i32 0, ptr %3, align 4
  br label %15

15:                                               ; preds = %14, %10
  %16 = load i32, ptr %3, align 4
  ret i32 %16
}