; Function Attrs: mustprogress nofree norecurse nosync nounwind sspstrong willreturn memory(argmem: write) uwtable
define hidden range(i32 0, 2) i32 @FLAC__ogg_encoder_aspect_set_num_metadata(ptr noundef writeonly captures(none) %0, i32 noundef %1) local_unnamed_addr #2 {
  %3 = load i32, ptr @FLAC__OGG_MAPPING_NUM_HEADERS_LEN, align 4, !tbaa !17
  %.highbits = lshr i32 %1, %3
  %4 = icmp eq i32 %.highbits, 0
  br i1 %4, label %5, label %7

5:                                                ; preds = %2
  %6 = getelementptr inbounds nuw i8, ptr %0, i64 8
  store i32 %1, ptr %6, align 8, !tbaa !18
  br label %7

7:                                                ; preds = %2, %5
  %.0 = phi i32 [ 1, %5 ], [ 0, %2 ]
  ret i32 %.0
}